; ModuleID = '8/206.c'
source_filename = "8/206.c"
target datalayout = "e-m:e-p270:32:32-p271:32:32-p272:64:64-i64:64-f80:128-n8:16:32:64-S128"
target triple = "x86_64-pc-linux-gnu"

@.str = private unnamed_addr constant [3 x i8] c"%d\00", align 1
@.str.1 = private unnamed_addr constant [2 x i8] c" \00", align 1
@.str.2 = private unnamed_addr constant [6 x i8] c"%d %d\00", align 1

; Function Attrs: noinline nounwind uwtable
define dso_local void @a(i32 %0, i32 %1) #0 {
  %3 = alloca i32, align 4
  %4 = alloca i32, align 4
  %5 = alloca [300 x i32], align 16
  %6 = alloca [300 x i32], align 16
  %7 = alloca i32, align 4
  %8 = alloca i32, align 4
  %9 = alloca i32, align 4
  store i32 %0, i32* %3, align 4
  store i32 %1, i32* %4, align 4
  %10 = bitcast [300 x i32]* %5 to i8*
  call void @llvm.memset.p0i8.i64(i8* align 16 %10, i8 0, i64 1200, i1 false)
  %11 = bitcast [300 x i32]* %6 to i8*
  call void @llvm.memset.p0i8.i64(i8* align 16 %11, i8 0, i64 1200, i1 false)
  store i32 0, i32* %7, align 4
  store i32 0, i32* %8, align 4
  store i32 0, i32* %9, align 4
  store i32 0, i32* %7, align 4
  br label %12

12:                                               ; preds = %21, %2
  %13 = load i32, i32* %7, align 4
  %14 = load i32, i32* %3, align 4
  %15 = icmp slt i32 %13, %14
  br i1 %15, label %16, label %24

16:                                               ; preds = %12
  %17 = load i32, i32* %7, align 4
  %18 = sext i32 %17 to i64
  %19 = getelementptr inbounds [300 x i32], [300 x i32]* %5, i64 0, i64 %18
  %20 = call i32 (i8*, ...) @__isoc99_scanf(i8* getelementptr inbounds ([3 x i8], [3 x i8]* @.str, i64 0, i64 0), i32* %19)
  br label %21

21:                                               ; preds = %16
  %22 = load i32, i32* %7, align 4
  %23 = add nsw i32 %22, 1
  store i32 %23, i32* %7, align 4
  br label %12

24:                                               ; preds = %12
  store i32 0, i32* %8, align 4
  br label %25

25:                                               ; preds = %34, %24
  %26 = load i32, i32* %8, align 4
  %27 = load i32, i32* %4, align 4
  %28 = icmp slt i32 %26, %27
  br i1 %28, label %29, label %37

29:                                               ; preds = %25
  %30 = load i32, i32* %8, align 4
  %31 = sext i32 %30 to i64
  %32 = getelementptr inbounds [300 x i32], [300 x i32]* %6, i64 0, i64 %31
  %33 = call i32 (i8*, ...) @__isoc99_scanf(i8* getelementptr inbounds ([3 x i8], [3 x i8]* @.str, i64 0, i64 0), i32* %32)
  br label %34

34:                                               ; preds = %29
  %35 = load i32, i32* %8, align 4
  %36 = add nsw i32 %35, 1
  store i32 %36, i32* %8, align 4
  br label %25

37:                                               ; preds = %25
  store i32 0, i32* %7, align 4
  br label %38

38:                                               ; preds = %83, %37
  %39 = load i32, i32* %7, align 4
  %40 = load i32, i32* %3, align 4
  %41 = sub nsw i32 %40, 1
  %42 = icmp slt i32 %39, %41
  br i1 %42, label %43, label %86

43:                                               ; preds = %38
  store i32 0, i32* %8, align 4
  br label %44

44:                                               ; preds = %79, %43
  %45 = load i32, i32* %8, align 4
  %46 = load i32, i32* %3, align 4
  %47 = sub nsw i32 %46, 1
  %48 = icmp slt i32 %45, %47
  br i1 %48, label %49, label %82

49:                                               ; preds = %44
  %50 = load i32, i32* %8, align 4
  %51 = sext i32 %50 to i64
  %52 = getelementptr inbounds [300 x i32], [300 x i32]* %5, i64 0, i64 %51
  %53 = load i32, i32* %52, align 4
  %54 = load i32, i32* %8, align 4
  %55 = add nsw i32 %54, 1
  %56 = sext i32 %55 to i64
  %57 = getelementptr inbounds [300 x i32], [300 x i32]* %5, i64 0, i64 %56
  %58 = load i32, i32* %57, align 4
  %59 = icmp sgt i32 %53, %58
  br i1 %59, label %60, label %78

60:                                               ; preds = %49
  %61 = load i32, i32* %8, align 4
  %62 = sext i32 %61 to i64
  %63 = getelementptr inbounds [300 x i32], [300 x i32]* %5, i64 0, i64 %62
  %64 = load i32, i32* %63, align 4
  store i32 %64, i32* %9, align 4
  %65 = load i32, i32* %8, align 4
  %66 = add nsw i32 %65, 1
  %67 = sext i32 %66 to i64
  %68 = getelementptr inbounds [300 x i32], [300 x i32]* %5, i64 0, i64 %67
  %69 = load i32, i32* %68, align 4
  %70 = load i32, i32* %8, align 4
  %71 = sext i32 %70 to i64
  %72 = getelementptr inbounds [300 x i32], [300 x i32]* %5, i64 0, i64 %71
  store i32 %69, i32* %72, align 4
  %73 = load i32, i32* %9, align 4
  %74 = load i32, i32* %8, align 4
  %75 = add nsw i32 %74, 1
  %76 = sext i32 %75 to i64
  %77 = getelementptr inbounds [300 x i32], [300 x i32]* %5, i64 0, i64 %76
  store i32 %73, i32* %77, align 4
  br label %78

78:                                               ; preds = %60, %49
  br label %79

79:                                               ; preds = %78
  %80 = load i32, i32* %8, align 4
  %81 = add nsw i32 %80, 1
  store i32 %81, i32* %8, align 4
  br label %44

82:                                               ; preds = %44
  br label %83

83:                                               ; preds = %82
  %84 = load i32, i32* %7, align 4
  %85 = add nsw i32 %84, 1
  store i32 %85, i32* %7, align 4
  br label %38

86:                                               ; preds = %38
  store i32 0, i32* %7, align 4
  br label %87

87:                                               ; preds = %132, %86
  %88 = load i32, i32* %7, align 4
  %89 = load i32, i32* %4, align 4
  %90 = sub nsw i32 %89, 1
  %91 = icmp slt i32 %88, %90
  br i1 %91, label %92, label %135

92:                                               ; preds = %87
  store i32 0, i32* %8, align 4
  br label %93

93:                                               ; preds = %128, %92
  %94 = load i32, i32* %8, align 4
  %95 = load i32, i32* %4, align 4
  %96 = sub nsw i32 %95, 1
  %97 = icmp slt i32 %94, %96
  br i1 %97, label %98, label %131

98:                                               ; preds = %93
  %99 = load i32, i32* %8, align 4
  %100 = sext i32 %99 to i64
  %101 = getelementptr inbounds [300 x i32], [300 x i32]* %6, i64 0, i64 %100
  %102 = load i32, i32* %101, align 4
  %103 = load i32, i32* %8, align 4
  %104 = add nsw i32 %103, 1
  %105 = sext i32 %104 to i64
  %106 = getelementptr inbounds [300 x i32], [300 x i32]* %6, i64 0, i64 %105
  %107 = load i32, i32* %106, align 4
  %108 = icmp sgt i32 %102, %107
  br i1 %108, label %109, label %127

109:                                              ; preds = %98
  %110 = load i32, i32* %8, align 4
  %111 = sext i32 %110 to i64
  %112 = getelementptr inbounds [300 x i32], [300 x i32]* %6, i64 0, i64 %111
  %113 = load i32, i32* %112, align 4
  store i32 %113, i32* %9, align 4
  %114 = load i32, i32* %8, align 4
  %115 = add nsw i32 %114, 1
  %116 = sext i32 %115 to i64
  %117 = getelementptr inbounds [300 x i32], [300 x i32]* %6, i64 0, i64 %116
  %118 = load i32, i32* %117, align 4
  %119 = load i32, i32* %8, align 4
  %120 = sext i32 %119 to i64
  %121 = getelementptr inbounds [300 x i32], [300 x i32]* %6, i64 0, i64 %120
  store i32 %118, i32* %121, align 4
  %122 = load i32, i32* %9, align 4
  %123 = load i32, i32* %8, align 4
  %124 = add nsw i32 %123, 1
  %125 = sext i32 %124 to i64
  %126 = getelementptr inbounds [300 x i32], [300 x i32]* %6, i64 0, i64 %125
  store i32 %122, i32* %126, align 4
  br label %127

127:                                              ; preds = %109, %98
  br label %128

128:                                              ; preds = %127
  %129 = load i32, i32* %8, align 4
  %130 = add nsw i32 %129, 1
  store i32 %130, i32* %8, align 4
  br label %93

131:                                              ; preds = %93
  br label %132

132:                                              ; preds = %131
  %133 = load i32, i32* %7, align 4
  %134 = add nsw i32 %133, 1
  store i32 %134, i32* %7, align 4
  br label %87

135:                                              ; preds = %87
  %136 = load i32, i32* %3, align 4
  store i32 %136, i32* %7, align 4
  store i32 0, i32* %8, align 4
  br label %137

137:                                              ; preds = %151, %135
  %138 = load i32, i32* %7, align 4
  %139 = load i32, i32* %3, align 4
  %140 = load i32, i32* %4, align 4
  %141 = add nsw i32 %139, %140
  %142 = icmp slt i32 %138, %141
  br i1 %142, label %143, label %156

143:                                              ; preds = %137
  %144 = load i32, i32* %8, align 4
  %145 = sext i32 %144 to i64
  %146 = getelementptr inbounds [300 x i32], [300 x i32]* %6, i64 0, i64 %145
  %147 = load i32, i32* %146, align 4
  %148 = load i32, i32* %7, align 4
  %149 = sext i32 %148 to i64
  %150 = getelementptr inbounds [300 x i32], [300 x i32]* %5, i64 0, i64 %149
  store i32 %147, i32* %150, align 4
  br label %151

151:                                              ; preds = %143
  %152 = load i32, i32* %7, align 4
  %153 = add nsw i32 %152, 1
  store i32 %153, i32* %7, align 4
  %154 = load i32, i32* %8, align 4
  %155 = add nsw i32 %154, 1
  store i32 %155, i32* %8, align 4
  br label %137

156:                                              ; preds = %137
  store i32 0, i32* %7, align 4
  br label %157

157:                                              ; preds = %178, %156
  %158 = load i32, i32* %7, align 4
  %159 = load i32, i32* %4, align 4
  %160 = load i32, i32* %3, align 4
  %161 = add nsw i32 %159, %160
  %162 = icmp slt i32 %158, %161
  br i1 %162, label %163, label %181

163:                                              ; preds = %157
  %164 = load i32, i32* %7, align 4
  %165 = sext i32 %164 to i64
  %166 = getelementptr inbounds [300 x i32], [300 x i32]* %5, i64 0, i64 %165
  %167 = load i32, i32* %166, align 4
  %168 = call i32 (i8*, ...) @printf(i8* getelementptr inbounds ([3 x i8], [3 x i8]* @.str, i64 0, i64 0), i32 %167)
  %169 = load i32, i32* %7, align 4
  %170 = load i32, i32* %4, align 4
  %171 = load i32, i32* %3, align 4
  %172 = add nsw i32 %170, %171
  %173 = sub nsw i32 %172, 1
  %174 = icmp ne i32 %169, %173
  br i1 %174, label %175, label %177

175:                                              ; preds = %163
  %176 = call i32 (i8*, ...) @printf(i8* getelementptr inbounds ([2 x i8], [2 x i8]* @.str.1, i64 0, i64 0))
  br label %177

177:                                              ; preds = %175, %163
  br label %178

178:                                              ; preds = %177
  %179 = load i32, i32* %7, align 4
  %180 = add nsw i32 %179, 1
  store i32 %180, i32* %7, align 4
  br label %157

181:                                              ; preds = %157
  ret void
}

; Function Attrs: argmemonly nounwind willreturn
declare void @llvm.memset.p0i8.i64(i8* nocapture writeonly, i8, i64, i1 immarg) #1

declare dso_local i32 @__isoc99_scanf(i8*, ...) #2

declare dso_local i32 @printf(i8*, ...) #2

; Function Attrs: noinline nounwind uwtable
define dso_local void @main() #0 {
  %1 = alloca i32, align 4
  %2 = alloca i32, align 4
  store i32 0, i32* %1, align 4
  store i32 0, i32* %2, align 4
  %3 = call i32 (i8*, ...) @__isoc99_scanf(i8* getelementptr inbounds ([6 x i8], [6 x i8]* @.str.2, i64 0, i64 0), i32* %1, i32* %2)
  %4 = load i32, i32* %1, align 4
  %5 = load i32, i32* %2, align 4
  call void @a(i32 %4, i32 %5)
  ret void
}


!llvm.module.flags = !{!0}
!llvm.ident = !{!1}

!0 = !{i32 1, !"wchar_size", i32 4}
!1 = !{!"clang version 10.0.0-4ubuntu1 "}
